target datalayout = "e-m:e-p270:32:32-p271:32:32-p272:64:64-i64:64-i128:128-f80:128-n8:16:32:64-S128"
target triple = "x86_64-pc-linux-gnu"

%struct.stats_state = type { i64, i64, i64, i64, float, i32, i32, i32, i32, i8, i8, i8, i8 }
%struct._stritem = type { ptr, ptr, ptr, i32, i32, i32, i16, i16, i8, i8, [0 x %union.anon] }
%union.anon = type { i64 }

@sizes = internal global [256 x i32] zeroinitializer, align 16
@heads = internal global [256 x ptr] zeroinitializer, align 16
@tails = internal global [256 x ptr] zeroinitializer, align 16
@sizes_bytes = internal global [256 x i64] zeroinitializer, align 16
@stats_state = external global %struct.stats_state, align 8
@stats_sizes_hist = internal global ptr null, align 8
@stats_sizes_buckets = internal global i32 0, align 4

; Function Attrs: nounwind uwtable
define dso_local void @item_free(ptr noundef %0) #0 {
  %2 = alloca ptr, align 8
  %3 = alloca i32, align 4
  store ptr %0, ptr %2, align 8, !tbaa !16
  call void @llvm.lifetime.start.p0(i64 4, ptr %3) #9
  %4 = load ptr, ptr %2, align 8, !tbaa !16
  %5 = getelementptr inbounds nuw %struct._stritem, ptr %4, i32 0, i32 8
  %6 = load i8, ptr %5, align 8, !tbaa !30
  %7 = zext i8 %6 to i32
  %8 = and i32 %7, -193
  store i32 %8, ptr %3, align 4, !tbaa !4
  br label %9

9:                                                ; preds = %10, %1
  br i1 false, label %10, label %11

10:                                               ; preds = %9
  br label %9

11:                                               ; preds = %9
  %12 = load ptr, ptr %2, align 8, !tbaa !16
  %13 = load i32, ptr %3, align 4, !tbaa !4
  call void @slabs_free(ptr noundef %12, i32 noundef %13)
  call void @llvm.lifetime.end.p0(i64 4, ptr %3) #9
  ret void
}

; Function Attrs: nounwind uwtable
define dso_local void @do_item_remove(ptr noundef %0) #0 {
  %2 = alloca ptr, align 8
  store ptr %0, ptr %2, align 8, !tbaa !16
  %3 = load ptr, ptr %2, align 8, !tbaa !16
  %4 = getelementptr inbounds nuw %struct._stritem, ptr %3, i32 0, i32 6
  %5 = load i16, ptr %4, align 4, !tbaa !34
  %6 = add i16 %5, -1
  store i16 %6, ptr %4, align 4, !tbaa !34
  %7 = zext i16 %6 to i32
  %8 = icmp eq i32 %7, 0
  br i1 %8, label %9, label %11

9:                                                ; preds = %1
  %10 = load ptr, ptr %2, align 8, !tbaa !16
  call void @item_free(ptr noundef %10)
  br label %11

11:                                               ; preds = %9, %1
  ret void
}

; Function Attrs: nounwind uwtable
define internal void @do_item_unlink_q(ptr noundef %0) #0 {
  %2 = alloca ptr, align 8
  %3 = alloca ptr, align 8
  %4 = alloca ptr, align 8
  store ptr %0, ptr %2, align 8, !tbaa !16
  call void @llvm.lifetime.start.p0(i64 8, ptr %3) #9
  call void @llvm.lifetime.start.p0(i64 8, ptr %4) #9
  %5 = load ptr, ptr %2, align 8, !tbaa !16
  %6 = getelementptr inbounds nuw %struct._stritem, ptr %5, i32 0, i32 8
  %7 = load i8, ptr %6, align 8, !tbaa !30
  %8 = zext i8 %7 to i64
  %9 = getelementptr inbounds nuw [256 x ptr], ptr @heads, i64 0, i64 %8
  store ptr %9, ptr %3, align 8, !tbaa !70
  %10 = load ptr, ptr %2, align 8, !tbaa !16
  %11 = getelementptr inbounds nuw %struct._stritem, ptr %10, i32 0, i32 8
  %12 = load i8, ptr %11, align 8, !tbaa !30
  %13 = zext i8 %12 to i64
  %14 = getelementptr inbounds nuw [256 x ptr], ptr @tails, i64 0, i64 %13
  store ptr %14, ptr %4, align 8, !tbaa !70
  %15 = load ptr, ptr %3, align 8, !tbaa !70
  %16 = load ptr, ptr %15, align 8, !tbaa !16
  %17 = load ptr, ptr %2, align 8, !tbaa !16
  %18 = icmp eq ptr %16, %17
  br i1 %18, label %19, label %24

19:                                               ; preds = %1
  %20 = load ptr, ptr %2, align 8, !tbaa !16
  %21 = getelementptr inbounds nuw %struct._stritem, ptr %20, i32 0, i32 0
  %22 = load ptr, ptr %21, align 8, !tbaa !16
  %23 = load ptr, ptr %3, align 8, !tbaa !70
  store ptr %22, ptr %23, align 8, !tbaa !16
  br label %24

24:                                               ; preds = %19, %1
  %25 = load ptr, ptr %4, align 8, !tbaa !70
  %26 = load ptr, ptr %25, align 8, !tbaa !16
  %27 = load ptr, ptr %2, align 8, !tbaa !16
  %28 = icmp eq ptr %26, %27
  br i1 %28, label %29, label %34

29:                                               ; preds = %24
  %30 = load ptr, ptr %2, align 8, !tbaa !16
  %31 = getelementptr inbounds nuw %struct._stritem, ptr %30, i32 0, i32 1
  %32 = load ptr, ptr %31, align 8, !tbaa !16
  %33 = load ptr, ptr %4, align 8, !tbaa !70
  store ptr %32, ptr %33, align 8, !tbaa !16
  br label %34

34:                                               ; preds = %29, %24
  %35 = load ptr, ptr %2, align 8, !tbaa !16
  %36 = getelementptr inbounds nuw %struct._stritem, ptr %35, i32 0, i32 0
  %37 = load ptr, ptr %36, align 8, !tbaa !16
  %38 = icmp ne ptr %37, null
  br i1 %38, label %39, label %47

39:                                               ; preds = %34
  %40 = load ptr, ptr %2, align 8, !tbaa !16
  %41 = getelementptr inbounds nuw %struct._stritem, ptr %40, i32 0, i32 1
  %42 = load ptr, ptr %41, align 8, !tbaa !16
  %43 = load ptr, ptr %2, align 8, !tbaa !16
  %44 = getelementptr inbounds nuw %struct._stritem, ptr %43, i32 0, i32 0
  %45 = load ptr, ptr %44, align 8, !tbaa !16
  %46 = getelementptr inbounds nuw %struct._stritem, ptr %45, i32 0, i32 1
  store ptr %42, ptr %46, align 8, !tbaa !16
  br label %47

47:                                               ; preds = %39, %34
  %48 = load ptr, ptr %2, align 8, !tbaa !16
  %49 = getelementptr inbounds nuw %struct._stritem, ptr %48, i32 0, i32 1
  %50 = load ptr, ptr %49, align 8, !tbaa !16
  %51 = icmp ne ptr %50, null
  br i1 %51, label %52, label %60

52:                                               ; preds = %47
  %53 = load ptr, ptr %2, align 8, !tbaa !16
  %54 = getelementptr inbounds nuw %struct._stritem, ptr %53, i32 0, i32 0
  %55 = load ptr, ptr %54, align 8, !tbaa !16
  %56 = load ptr, ptr %2, align 8, !tbaa !16
  %57 = getelementptr inbounds nuw %struct._stritem, ptr %56, i32 0, i32 1
  %58 = load ptr, ptr %57, align 8, !tbaa !16
  %59 = getelementptr inbounds nuw %struct._stritem, ptr %58, i32 0, i32 0
  store ptr %55, ptr %59, align 8, !tbaa !16
  br label %60

60:                                               ; preds = %52, %47
  %61 = load ptr, ptr %2, align 8, !tbaa !16
  %62 = getelementptr inbounds nuw %struct._stritem, ptr %61, i32 0, i32 8
  %63 = load i8, ptr %62, align 8, !tbaa !30
  %64 = zext i8 %63 to i64
  %65 = getelementptr inbounds nuw [256 x i32], ptr @sizes, i64 0, i64 %64
  %66 = load i32, ptr %65, align 4, !tbaa !4
  %67 = add i32 %66, -1
  store i32 %67, ptr %65, align 4, !tbaa !4
  %68 = load ptr, ptr %2, align 8, !tbaa !16
  %69 = getelementptr inbounds nuw %struct._stritem, ptr %68, i32 0, i32 7
  %70 = load i16, ptr %69, align 2, !tbaa !34
  %71 = zext i16 %70 to i32
  %72 = and i32 %71, 128
  %73 = icmp ne i32 %72, 0
  br i1 %73, label %74, label %115

74:                                               ; preds = %60
  %75 = load ptr, ptr %2, align 8, !tbaa !16
  %76 = getelementptr inbounds nuw %struct._stritem, ptr %75, i32 0, i32 9
  %77 = load i8, ptr %76, align 1, !tbaa !30
  %78 = zext i8 %77 to i64
  %79 = add i64 48, %78
  %80 = add i64 %79, 1
  %81 = load ptr, ptr %2, align 8, !tbaa !16
  %82 = getelementptr inbounds nuw %struct._stritem, ptr %81, i32 0, i32 5
  %83 = load i32, ptr %82, align 8, !tbaa !4
  %84 = sext i32 %83 to i64
  %85 = add i64 %80, %84
  %86 = load ptr, ptr %2, align 8, !tbaa !16
  %87 = getelementptr inbounds nuw %struct._stritem, ptr %86, i32 0, i32 7
  %88 = load i16, ptr %87, align 2, !tbaa !34
  %89 = zext i16 %88 to i32
  %90 = and i32 %89, 256
  %91 = icmp ne i32 %90, 0
  %92 = select i1 %91, i64 4, i64 0
  %93 = add i64 %85, %92
  %94 = load ptr, ptr %2, align 8, !tbaa !16
  %95 = getelementptr inbounds nuw %struct._stritem, ptr %94, i32 0, i32 7
  %96 = load i16, ptr %95, align 2, !tbaa !34
  %97 = zext i16 %96 to i32
  %98 = and i32 %97, 2
  %99 = icmp ne i32 %98, 0
  %100 = select i1 %99, i64 8, i64 0
  %101 = add i64 %93, %100
  %102 = load ptr, ptr %2, align 8, !tbaa !16
  %103 = getelementptr inbounds nuw %struct._stritem, ptr %102, i32 0, i32 5
  %104 = load i32, ptr %103, align 8, !tbaa !4
  %105 = sext i32 %104 to i64
  %106 = sub i64 %101, %105
  %107 = add i64 %106, 12
  %108 = load ptr, ptr %2, align 8, !tbaa !16
  %109 = getelementptr inbounds nuw %struct._stritem, ptr %108, i32 0, i32 8
  %110 = load i8, ptr %109, align 8, !tbaa !30
  %111 = zext i8 %110 to i64
  %112 = getelementptr inbounds nuw [256 x i64], ptr @sizes_bytes, i64 0, i64 %111
  %113 = load i64, ptr %112, align 8, !tbaa !10
  %114 = sub i64 %113, %107
  store i64 %114, ptr %112, align 8, !tbaa !10
  br label %150

115:                                              ; preds = %60
  %116 = load ptr, ptr %2, align 8, !tbaa !16
  %117 = getelementptr inbounds nuw %struct._stritem, ptr %116, i32 0, i32 9
  %118 = load i8, ptr %117, align 1, !tbaa !30
  %119 = zext i8 %118 to i64
  %120 = add i64 48, %119
  %121 = add i64 %120, 1
  %122 = load ptr, ptr %2, align 8, !tbaa !16
  %123 = getelementptr inbounds nuw %struct._stritem, ptr %122, i32 0, i32 5
  %124 = load i32, ptr %123, align 8, !tbaa !4
  %125 = sext i32 %124 to i64
  %126 = add i64 %121, %125
  %127 = load ptr, ptr %2, align 8, !tbaa !16
  %128 = getelementptr inbounds nuw %struct._stritem, ptr %127, i32 0, i32 7
  %129 = load i16, ptr %128, align 2, !tbaa !34
  %130 = zext i16 %129 to i32
  %131 = and i32 %130, 256
  %132 = icmp ne i32 %131, 0
  %133 = select i1 %132, i64 4, i64 0
  %134 = add i64 %126, %133
  %135 = load ptr, ptr %2, align 8, !tbaa !16
  %136 = getelementptr inbounds nuw %struct._stritem, ptr %135, i32 0, i32 7
  %137 = load i16, ptr %136, align 2, !tbaa !34
  %138 = zext i16 %137 to i32
  %139 = and i32 %138, 2
  %140 = icmp ne i32 %139, 0
  %141 = select i1 %140, i64 8, i64 0
  %142 = add i64 %134, %141
  %143 = load ptr, ptr %2, align 8, !tbaa !16
  %144 = getelementptr inbounds nuw %struct._stritem, ptr %143, i32 0, i32 8
  %145 = load i8, ptr %144, align 8, !tbaa !30
  %146 = zext i8 %145 to i64
  %147 = getelementptr inbounds nuw [256 x i64], ptr @sizes_bytes, i64 0, i64 %146
  %148 = load i64, ptr %147, align 8, !tbaa !10
  %149 = sub i64 %148, %142
  store i64 %149, ptr %147, align 8, !tbaa !10
  br label %150

150:                                              ; preds = %115, %74
  call void @llvm.lifetime.end.p0(i64 8, ptr %4) #9
  call void @llvm.lifetime.end.p0(i64 8, ptr %3) #9
  ret void
}

; Function Attrs: nounwind uwtable
define dso_local void @item_stats_sizes_remove(ptr noundef %0) #0 {
  %2 = alloca ptr, align 8
  %3 = alloca i32, align 4
  %4 = alloca i32, align 4
  store ptr %0, ptr %2, align 8, !tbaa !16
  %5 = load ptr, ptr @stats_sizes_hist, align 8, !tbaa !79
  %6 = icmp eq ptr %5, null
  br i1 %6, label %7, label %8

7:                                                ; preds = %1
  br label %57

8:                                                ; preds = %1
  call void @llvm.lifetime.start.p0(i64 4, ptr %3) #9
  %9 = load ptr, ptr %2, align 8, !tbaa !16
  %10 = getelementptr inbounds nuw %struct._stritem, ptr %9, i32 0, i32 9
  %11 = load i8, ptr %10, align 1, !tbaa !30
  %12 = zext i8 %11 to i64
  %13 = add i64 48, %12
  %14 = add i64 %13, 1
  %15 = load ptr, ptr %2, align 8, !tbaa !16
  %16 = getelementptr inbounds nuw %struct._stritem, ptr %15, i32 0, i32 5
  %17 = load i32, ptr %16, align 8, !tbaa !4
  %18 = sext i32 %17 to i64
  %19 = add i64 %14, %18
  %20 = load ptr, ptr %2, align 8, !tbaa !16
  %21 = getelementptr inbounds nuw %struct._stritem, ptr %20, i32 0, i32 7
  %22 = load i16, ptr %21, align 2, !tbaa !34
  %23 = zext i16 %22 to i32
  %24 = and i32 %23, 256
  %25 = icmp ne i32 %24, 0
  %26 = select i1 %25, i64 4, i64 0
  %27 = add i64 %19, %26
  %28 = load ptr, ptr %2, align 8, !tbaa !16
  %29 = getelementptr inbounds nuw %struct._stritem, ptr %28, i32 0, i32 7
  %30 = load i16, ptr %29, align 2, !tbaa !34
  %31 = zext i16 %30 to i32
  %32 = and i32 %31, 2
  %33 = icmp ne i32 %32, 0
  %34 = select i1 %33, i64 8, i64 0
  %35 = add i64 %27, %34
  %36 = trunc i64 %35 to i32
  store i32 %36, ptr %3, align 4, !tbaa !4
  call void @llvm.lifetime.start.p0(i64 4, ptr %4) #9
  %37 = load i32, ptr %3, align 4, !tbaa !4
  %38 = sdiv i32 %37, 32
  store i32 %38, ptr %4, align 4, !tbaa !4
  %39 = load i32, ptr %3, align 4, !tbaa !4
  %40 = srem i32 %39, 32
  %41 = icmp ne i32 %40, 0
  br i1 %41, label %42, label %45

42:                                               ; preds = %8
  %43 = load i32, ptr %4, align 4, !tbaa !4
  %44 = add nsw i32 %43, 1
  store i32 %44, ptr %4, align 4, !tbaa !4
  br label %45

45:                                               ; preds = %42, %8
  %46 = load i32, ptr %4, align 4, !tbaa !4
  %47 = load i32, ptr @stats_sizes_buckets, align 4, !tbaa !4
  %48 = icmp slt i32 %46, %47
  br i1 %48, label %49, label %56

49:                                               ; preds = %45
  %50 = load ptr, ptr @stats_sizes_hist, align 8, !tbaa !79
  %51 = load i32, ptr %4, align 4, !tbaa !4
  %52 = sext i32 %51 to i64
  %53 = getelementptr inbounds i32, ptr %50, i64 %52
  %54 = load i32, ptr %53, align 4, !tbaa !4
  %55 = add i32 %54, -1
  store i32 %55, ptr %53, align 4, !tbaa !4
  br label %56

56:                                               ; preds = %49, %45
  call void @llvm.lifetime.end.p0(i64 4, ptr %4) #9
  call void @llvm.lifetime.end.p0(i64 4, ptr %3) #9
  br label %57

57:                                               ; preds = %56, %7
  ret void
}

; Function Attrs: nounwind uwtable
define dso_local void @do_item_unlink_nolock(ptr noundef %0, i32 noundef %1) #0 {
  %3 = alloca ptr, align 8
  %4 = alloca i32, align 4
  store ptr %0, ptr %3, align 8, !tbaa !16
  store i32 %1, ptr %4, align 4, !tbaa !4
  %5 = load ptr, ptr %3, align 8, !tbaa !16
  %6 = getelementptr inbounds nuw %struct._stritem, ptr %5, i32 0, i32 7
  %7 = load i16, ptr %6, align 2, !tbaa !34
  %8 = zext i16 %7 to i32
  %9 = and i32 %8, 1
  %10 = icmp ne i32 %9, 0
  br i1 %10, label %11, label %67

11:                                               ; preds = %2
  %12 = load ptr, ptr %3, align 8, !tbaa !16
  %13 = getelementptr inbounds nuw %struct._stritem, ptr %12, i32 0, i32 7
  %14 = load i16, ptr %13, align 2, !tbaa !34
  %15 = zext i16 %14 to i32
  %16 = and i32 %15, -2
  %17 = trunc i32 %16 to i16
  store i16 %17, ptr %13, align 2, !tbaa !34
  call void @STATS_LOCK()
  %18 = load ptr, ptr %3, align 8, !tbaa !16
  %19 = getelementptr inbounds nuw %struct._stritem, ptr %18, i32 0, i32 9
  %20 = load i8, ptr %19, align 1, !tbaa !30
  %21 = zext i8 %20 to i64
  %22 = add i64 48, %21
  %23 = add i64 %22, 1
  %24 = load ptr, ptr %3, align 8, !tbaa !16
  %25 = getelementptr inbounds nuw %struct._stritem, ptr %24, i32 0, i32 5
  %26 = load i32, ptr %25, align 8, !tbaa !4
  %27 = sext i32 %26 to i64
  %28 = add i64 %23, %27
  %29 = load ptr, ptr %3, align 8, !tbaa !16
  %30 = getelementptr inbounds nuw %struct._stritem, ptr %29, i32 0, i32 7
  %31 = load i16, ptr %30, align 2, !tbaa !34
  %32 = zext i16 %31 to i32
  %33 = and i32 %32, 256
  %34 = icmp ne i32 %33, 0
  %35 = select i1 %34, i64 4, i64 0
  %36 = add i64 %28, %35
  %37 = load ptr, ptr %3, align 8, !tbaa !16
  %38 = getelementptr inbounds nuw %struct._stritem, ptr %37, i32 0, i32 7
  %39 = load i16, ptr %38, align 2, !tbaa !34
  %40 = zext i16 %39 to i32
  %41 = and i32 %40, 2
  %42 = icmp ne i32 %41, 0
  %43 = select i1 %42, i64 8, i64 0
  %44 = add i64 %36, %43
  %45 = load i64, ptr getelementptr inbounds nuw (%struct.stats_state, ptr @stats_state, i32 0, i32 1), align 8, !tbaa !72
  %46 = sub i64 %45, %44
  store i64 %46, ptr getelementptr inbounds nuw (%struct.stats_state, ptr @stats_state, i32 0, i32 1), align 8, !tbaa !72
  %47 = load i64, ptr @stats_state, align 8, !tbaa !75
  %48 = sub i64 %47, 1
  store i64 %48, ptr @stats_state, align 8, !tbaa !75
  call void @STATS_UNLOCK()
  %49 = load ptr, ptr %3, align 8, !tbaa !16
  call void @item_stats_sizes_remove(ptr noundef %49)
  %50 = load ptr, ptr %3, align 8, !tbaa !16
  %51 = getelementptr inbounds nuw %struct._stritem, ptr %50, i32 0, i32 10
  %52 = load ptr, ptr %3, align 8, !tbaa !16
  %53 = getelementptr inbounds nuw %struct._stritem, ptr %52, i32 0, i32 7
  %54 = load i16, ptr %53, align 2, !tbaa !34
  %55 = zext i16 %54 to i32
  %56 = and i32 %55, 2
  %57 = icmp ne i32 %56, 0
  %58 = select i1 %57, i64 8, i64 0
  %59 = getelementptr inbounds nuw i8, ptr %51, i64 %58
  %60 = load ptr, ptr %3, align 8, !tbaa !16
  %61 = getelementptr inbounds nuw %struct._stritem, ptr %60, i32 0, i32 9
  %62 = load i8, ptr %61, align 1, !tbaa !30
  %63 = zext i8 %62 to i64
  %64 = load i32, ptr %4, align 4, !tbaa !4
  call void @assoc_delete(ptr noundef %59, i64 noundef %63, i32 noundef %64)
  %65 = load ptr, ptr %3, align 8, !tbaa !16
  call void @do_item_unlink_q(ptr noundef %65)
  %66 = load ptr, ptr %3, align 8, !tbaa !16
  call void @do_item_remove(ptr noundef %66)
  br label %67

67:                                               ; preds = %11, %2
  ret void
}