; Function Attrs: nounwind uwtable
define dso_local void @do_item_unlink_nolock(ptr noundef %0, i32 noundef %1) local_unnamed_addr #0 {
  %3 = getelementptr inbounds nuw i8, ptr %0, i64 38
  %4 = load i16, ptr %3, align 2, !tbaa !31
  %5 = and i16 %4, 1
  %.not = icmp eq i16 %5, 0
  br i1 %.not, label %do_item_remove.exit, label %6

6:                                                ; preds = %2
  %7 = and i16 %4, -2
  store i16 %7, ptr %3, align 2, !tbaa !31
  tail call void @STATS_LOCK() #19
  %8 = getelementptr inbounds nuw i8, ptr %0, i64 41
  %9 = load i8, ptr %8, align 1, !tbaa !30
  %10 = zext i8 %9 to i64
  %11 = getelementptr inbounds nuw i8, ptr %0, i64 32
  %12 = load i32, ptr %11, align 8, !tbaa !22
  %13 = sext i32 %12 to i64
  %14 = load i16, ptr %3, align 2, !tbaa !31
  %15 = zext i16 %14 to i32
  %16 = lshr i32 %15, 6
  %17 = and i32 %16, 4
  %18 = zext nneg i32 %17 to i64
  %19 = shl nuw nsw i32 %15, 2
  %20 = and i32 %19, 8
  %21 = zext nneg i32 %20 to i64
  %22 = load i64, ptr getelementptr inbounds nuw (i8, ptr @stats_state, i64 8), align 8, !tbaa !66
  %23 = add nsw i64 %10, %13
  %24 = add i64 %22, -49
  %25 = add nsw i64 %23, %18
  %26 = add nsw i64 %25, %21
  %27 = sub i64 %24, %26
  store i64 %27, ptr getelementptr inbounds nuw (i8, ptr @stats_state, i64 8), align 8, !tbaa !66
  %28 = load i64, ptr @stats_state, align 8, !tbaa !69
  %29 = add i64 %28, -1
  store i64 %29, ptr @stats_state, align 8, !tbaa !69
  tail call void @STATS_UNLOCK() #19
  %30 = load ptr, ptr @stats_sizes_hist, align 8, !tbaa !73
  %31 = icmp eq ptr %30, null
  %.pre = load i16, ptr %3, align 2, !tbaa !31
  %.pre32 = load i8, ptr %8, align 1, !tbaa !30
  br i1 %31, label %item_stats_sizes_remove.exit, label %32

32:                                               ; preds = %6
  %33 = zext i8 %.pre32 to i32
  %34 = add nuw nsw i32 %33, 49
  %35 = load i32, ptr %11, align 8, !tbaa !22
  %36 = add i32 %34, %35
  %37 = zext i16 %.pre to i32
  %38 = lshr i32 %37, 6
  %39 = and i32 %38, 4
  %40 = add i32 %36, %39
  %41 = shl nuw nsw i32 %37, 2
  %42 = and i32 %41, 8
  %43 = add i32 %40, %42
  %44 = sdiv i32 %43, 32
  %45 = and i32 %43, 31
  %.not.i = icmp ne i32 %45, 0
  %46 = zext i1 %.not.i to i32
  %spec.select.i = add nsw i32 %44, %46
  %47 = load i32, ptr @stats_sizes_buckets, align 4, !tbaa !22
  %48 = icmp slt i32 %spec.select.i, %47
  br i1 %48, label %49, label %item_stats_sizes_remove.exit

49:                                               ; preds = %32
  %50 = sext i32 %spec.select.i to i64
  %51 = getelementptr inbounds i32, ptr %30, i64 %50
  %52 = load i32, ptr %51, align 4, !tbaa !22
  %53 = add i32 %52, -1
  store i32 %53, ptr %51, align 4, !tbaa !22
  %.pre31 = load i8, ptr %8, align 1, !tbaa !30
  br label %item_stats_sizes_remove.exit

item_stats_sizes_remove.exit:                     ; preds = %6, %32, %49
  %54 = phi i8 [ %.pre32, %6 ], [ %.pre32, %32 ], [ %.pre31, %49 ]
  %55 = getelementptr inbounds nuw i8, ptr %0, i64 48
  %56 = shl i16 %.pre, 2
  %57 = and i16 %56, 8
  %58 = zext nneg i16 %57 to i64
  %59 = getelementptr inbounds nuw i8, ptr %55, i64 %58
  %60 = zext i8 %54 to i64
  tail call void @assoc_delete(ptr noundef nonnull %59, i64 noundef %60, i32 noundef %1) #19
  %61 = getelementptr inbounds nuw i8, ptr %0, i64 40
  %62 = load i8, ptr %61, align 8, !tbaa !30
  %63 = zext i8 %62 to i64
  %64 = getelementptr inbounds nuw [256 x ptr], ptr @heads, i64 0, i64 %63
  %65 = getelementptr inbounds nuw [256 x ptr], ptr @tails, i64 0, i64 %63
  %66 = load ptr, ptr %64, align 8, !tbaa !28
  %67 = icmp eq ptr %66, %0
  br i1 %67, label %68, label %70

68:                                               ; preds = %item_stats_sizes_remove.exit
  %69 = load ptr, ptr %0, align 8, !tbaa !28
  store ptr %69, ptr %64, align 8, !tbaa !28
  br label %70

70:                                               ; preds = %68, %item_stats_sizes_remove.exit
  %71 = load ptr, ptr %65, align 8, !tbaa !28
  %72 = icmp eq ptr %71, %0
  %73 = getelementptr inbounds nuw i8, ptr %0, i64 8
  %74 = load ptr, ptr %73, align 8, !tbaa !28
  br i1 %72, label %75, label %._crit_edge

75:                                               ; preds = %70
  store ptr %74, ptr %65, align 8, !tbaa !28
  br label %._crit_edge

._crit_edge:                                      ; preds = %70, %75
  %76 = load ptr, ptr %0, align 8, !tbaa !28
  %.not.i15 = icmp eq ptr %76, null
  br i1 %.not.i15, label %._crit_edge.i, label %77

77:                                               ; preds = %._crit_edge
  %78 = getelementptr inbounds nuw i8, ptr %76, i64 8
  store ptr %74, ptr %78, align 8, !tbaa !28
  br label %._crit_edge.i

._crit_edge.i:                                    ; preds = %77, %._crit_edge
  %.not31.i = icmp eq ptr %74, null
  br i1 %.not31.i, label %81, label %79

79:                                               ; preds = %._crit_edge.i
  %80 = load ptr, ptr %0, align 8, !tbaa !28
  store ptr %80, ptr %74, align 8, !tbaa !28
  br label %81

81:                                               ; preds = %79, %._crit_edge.i
  %82 = load i8, ptr %61, align 8, !tbaa !30
  %83 = zext i8 %82 to i64
  %84 = getelementptr inbounds nuw [256 x i32], ptr @sizes, i64 0, i64 %83
  %85 = load i32, ptr %84, align 4, !tbaa !22
  %86 = add i32 %85, -1
  store i32 %86, ptr %84, align 4, !tbaa !22
  %87 = load i16, ptr %3, align 2, !tbaa !31
  %88 = zext i16 %87 to i32
  %89 = and i32 %88, 128
  %.not32.i = icmp eq i32 %89, 0
  %90 = load i8, ptr %8, align 1, !tbaa !30
  %91 = zext i8 %90 to i64
  br i1 %.not32.i, label %103, label %92

92:                                               ; preds = %81
  %93 = lshr i32 %88, 6
  %94 = and i32 %93, 4
  %95 = shl nuw nsw i32 %88, 2
  %96 = and i32 %95, 8
  %97 = getelementptr inbounds nuw [256 x i64], ptr @sizes_bytes, i64 0, i64 %83
  %98 = load i64, ptr %97, align 8, !tbaa !14
  %99 = or disjoint i32 %94, %96
  %100 = zext nneg i32 %99 to i64
  %101 = add nuw nsw i64 %91, %100
  %reass.sub = sub i64 %98, %101
  %102 = add i64 %reass.sub, -61
  store i64 %102, ptr %97, align 8, !tbaa !14
  br label %do_item_unlink_q.exit

103:                                              ; preds = %81
  %104 = load i32, ptr %11, align 8, !tbaa !22
  %105 = sext i32 %104 to i64
  %106 = lshr i32 %88, 6
  %107 = and i32 %106, 4
  %108 = shl nuw nsw i32 %88, 2
  %109 = and i32 %108, 8
  %110 = getelementptr inbounds nuw [256 x i64], ptr @sizes_bytes, i64 0, i64 %83
  %111 = load i64, ptr %110, align 8, !tbaa !14
  %112 = or disjoint i32 %107, %109
  %113 = zext nneg i32 %112 to i64
  %114 = add nuw nsw i64 %91, %113
  %115 = add nsw i64 %114, %105
  %reass.sub30 = sub i64 %111, %115
  %116 = add i64 %reass.sub30, -49
  store i64 %116, ptr %110, align 8, !tbaa !14
  br label %do_item_unlink_q.exit

do_item_unlink_q.exit:                            ; preds = %92, %103
  %117 = getelementptr inbounds nuw i8, ptr %0, i64 36
  %118 = load i16, ptr %117, align 4, !tbaa !31
  %119 = add i16 %118, -1
  store i16 %119, ptr %117, align 4, !tbaa !31
  %120 = icmp eq i16 %119, 0
  br i1 %120, label %121, label %do_item_remove.exit

121:                                              ; preds = %do_item_unlink_q.exit
  %122 = and i8 %82, 63
  %123 = zext nneg i8 %122 to i32
  tail call void @slabs_free(ptr noundef nonnull %0, i32 noundef %123) #19
  br label %do_item_remove.exit

do_item_remove.exit:                              ; preds = %121, %do_item_unlink_q.exit, %2
  ret void
}